(dp0
S'node5.example.com'
p1
(lp2
S'instance72.example.com'
p3
aS'instance73.example.com'
p4
aS'instance79.example.com'
p5
aS'instance108.example.com'
p6
aS'instance42.example.com'
p7
aS'instance92.example.com'
p8
aS'instance20.example.com'
p9
aS'instance88.example.com'
p10
aS'instance110.example.com'
p11
aS'instance96.example.com'
p12
aS'instance93.example.com'
p13
aS'instance6.example.com'
p14
aS'instance5.example.com'
p15
aS'instance77.example.com'
p16
aS'instance98.example.com'
p17
aS'instance86.example.com'
p18
aS'instance69.example.com'
p19
aS'instance84.example.com'
p20
aS'instance103.example.com'
p21
aS'instance64.example.com'
p22
aS'instance3.example.com'
p23
aS'instance15.example.com'
p24
aS'instance91.example.com'
p25
aS'instance68.example.com'
p26
aS'instance59.example.com'
p27
aS'instance9.example.com'
p28
aS'instance47.example.com'
p29
asS'node2.example.com'
p30
(lp31
S'instance19.example.com'
p32
aS'instance13.example.com'
p33
aS'instance99.example.com'
p34
aS'instance62.example.com'
p35
aS'instance38.example.com'
p36
aS'instance105.example.com'
p37
aS'instance32.example.com'
p38
aS'instance37.example.com'
p39
aS'instance1.example.com'
p40
aS'instance25.example.com'
p41
aS'instance94.example.com'
p42
aS'instance95.example.com'
p43
aS'instance12.example.com'
p44
aS'instance89.example.com'
p45
aS'instance61.example.com'
p46
aS'instance49.example.com'
p47
aS'instance83.example.com'
p48
aS'instance87.example.com'
p49
aS'instance90.example.com'
p50
aS'instance36.example.com'
p51
aS'instance18.example.com'
p52
aS'instance7.example.com'
p53
aS'instance39.example.com'
p54
aS'instance40.example.com'
p55
aS'instance4.example.com'
p56
asS'node4.example.com'
p57
(lp58
S'instance43.example.com'
p59
aS'instance107.example.com'
p60
aS'instance82.example.com'
p61
aS'instance57.example.com'
p62
aS'instance97.example.com'
p63
aS'instance48.example.com'
p64
aS'instance31.example.com'
p65
aS'instance76.example.com'
p66
aS'instance66.example.com'
p67
aS'instance29.example.com'
p68
aS'instance71.example.com'
p69
aS'instance33.example.com'
p70
aS'instance11.example.com'
p71
aS'instance60.example.com'
p72
aS'instance30.example.com'
p73
aS'instance106.example.com'
p74
aS'instance35.example.com'
p75
aS'instance78.example.com'
p76
asS'node1.example.com'
p77
(lp78
S'instance55.example.com'
p79
aS'instance45.example.com'
p80
aS'instance10.example.com'
p81
aS'instance56.example.com'
p82
aS'instance109.example.com'
p83
aS'instance8.example.com'
p84
aS'instance74.example.com'
p85
aS'instance80.example.com'
p86
aS'instance85.example.com'
p87
aS'instance100.example.com'
p88
aS'instance70.example.com'
p89
aS'instance52.example.com'
p90
aS'instance27.example.com'
p91
aS'instance46.example.com'
p92
aS'instance24.example.com'
p93
aS'instance65.example.com'
p94
aS'instance58.example.com'
p95
aS'instance2.example.com'
p96
aS'instance53.example.com'
p97
aS'instance44.example.com'
p98
asS'node3.example.com'
p99
(lp100
S'instance16.example.com'
p101
aS'instance102.example.com'
p102
aS'instance41.example.com'
p103
aS'instance67.example.com'
p104
aS'instance104.example.com'
p105
aS'instance34.example.com'
p106
aS'instance75.example.com'
p107
aS'instance50.example.com'
p108
aS'instance51.example.com'
p109
aS'instance23.example.com'
p110
aS'instance54.example.com'
p111
aS'instance26.example.com'
p112
aS'instance21.example.com'
p113
aS'instance63.example.com'
p114
aS'instance22.example.com'
p115
aS'instance14.example.com'
p116
aS'instance81.example.com'
p117
aS'instance17.example.com'
p118
aS'instance101.example.com'
p119
aS'instance28.example.com'
p120
as.(dp0
S'node5.example.com'
p1
(dp2
S'node2.example.com'
p3
I12
sS'node4.example.com'
p4
I3
sS'node1.example.com'
p5
I4
sS'node3.example.com'
p6
I3
ssS'node2.example.com'
p7
(dp8
S'node5.example.com'
p9
I10
sS'node4.example.com'
p10
I4
sS'node1.example.com'
p11
I6
sS'node3.example.com'
p12
I3
ssS'node4.example.com'
p13
(dp14
S'node5.example.com'
p15
I2
sS'node2.example.com'
p16
I5
sS'node1.example.com'
p17
I6
sS'node3.example.com'
p18
I5
ssS'node1.example.com'
p19
(dp20
S'node5.example.com'
p21
I3
sS'node2.example.com'
p22
I3
sS'node4.example.com'
p23
I5
sS'node3.example.com'
p24
I9
ssS'node3.example.com'
p25
(dp26
S'node5.example.com'
p27
I7
sS'node2.example.com'
p28
I1
sS'node4.example.com'
p29
I10
sS'node1.example.com'
p30
I2
ss.